target datalayout = "e-m:e-p270:32:32-p271:32:32-p272:64:64-i64:64-i128:128-f80:128-n8:16:32:64-S128"
target triple = "x86_64-pc-linux-gnu"

%struct._zend_phpdbg_globals = type { [11 x %struct._zend_array], %struct._zend_array, %struct._zend_array, ptr, ptr, %struct.phpdbg_frame_t, i32, ptr, %struct.phpdbg_lexer_data, ptr, %struct.sigaction, i32, i64, %struct.phpdbg_btree, %struct.phpdbg_btree, %struct._zend_array, %struct._zend_array, %struct._zend_array, %struct._zend_array, ptr, ptr, ptr, i8, ptr, ptr, ptr, i64, ptr, %struct._zval_struct, i32, i32, i8, i8, ptr, ptr, ptr, %struct._zend_array, ptr, ptr, ptr, [3 x %struct.anon.8], ptr, %struct.anon.9, i64, [2 x ptr], [3 x ptr], ptr, i8, ptr, ptr, [500 x i8], i32, %struct.phpdbg_signal_safe_mem, ptr, i64, ptr, i64 }
%struct.phpdbg_frame_t = type { i32, ptr, ptr }
%struct.phpdbg_lexer_data = type { i32, ptr, ptr, ptr, ptr, i32 }
%struct.sigaction = type { %union.anon.2, %struct.__sigset_t, i32, ptr }
%union.anon.2 = type { ptr }
%struct.__sigset_t = type { [16 x i64] }
%struct.phpdbg_btree = type { i64, i64, i8, ptr }
%struct._zval_struct = type { %union._zend_value, %union.anon.4, %union.anon.7 }
%union._zend_value = type { i64 }
%union.anon.4 = type { i32 }
%union.anon.7 = type { i32 }
%struct._zend_array = type { %struct._zend_refcounted_h, %union.anon.0, i32, %union.anon.1, i32, i32, i32, i32, i64, ptr }
%struct._zend_refcounted_h = type { i32, %union.anon }
%union.anon = type { i32 }
%union.anon.0 = type { i32 }
%union.anon.1 = type { ptr }
%struct.anon.8 = type { i32 }
%struct.anon.9 = type { i8, i32, i32, ptr, i32 }
%struct.phpdbg_signal_safe_mem = type { ptr, i8, ptr, ptr }
%struct._zend_executor_globals = type { %struct._zval_struct, %struct._zval_struct, [32 x ptr], ptr, ptr, %struct._zend_array, %struct._zend_array, ptr, i32, i8, %struct._zval_struct, i32, ptr, ptr, ptr, ptr, ptr, ptr, i64, ptr, ptr, i32, ptr, i32, i64, i32, i32, i32, i8, i8, %struct.zend_atomic_bool_s, %struct.zend_atomic_bool_s, ptr, i64, ptr, ptr, %struct._zend_array, %struct._zend_array, i32, i8, %struct._zval_struct, %struct._zval_struct, %struct._zend_stack, %struct._zend_stack, %struct._zend_stack, ptr, i32, i32, i64, ptr, ptr, ptr, %struct._zend_objects_store, %struct._zend_lazy_objects_store, ptr, ptr, ptr, [3 x %struct._zend_op], ptr, i8, i8, i64, i32, i32, ptr, [16 x %struct._HashTableIterator], ptr, %union._zend_function, %struct._zend_op, %struct._zend_array, i64, %struct.zend_get_gc_buffer, ptr, ptr, ptr, i64, i8, i32, ptr, ptr, i64, %struct._zend_call_stack, i64, i64, %struct._zend_strtod_state, [6 x ptr] }
%struct.zend_atomic_bool_s = type { i8 }
%struct._zend_stack = type { i32, i32, i32, ptr }
%struct._zend_objects_store = type { ptr, i32, i32, i32 }
%struct._zend_lazy_objects_store = type { %struct._zend_array }
%struct._HashTableIterator = type { ptr, i32, i32 }
%union._zend_function = type { %struct._zend_op_array }
%struct._zend_op_array = type { i8, [3 x i8], i32, ptr, ptr, ptr, i32, i32, ptr, ptr, ptr, ptr, i32, ptr, i32, i32, i32, ptr, ptr, ptr, ptr, ptr, i32, i32, ptr, ptr, ptr, i32, i32, i32, i32, ptr, ptr, [6 x ptr] }
%struct._zend_op = type { ptr, %union._znode_op, %union._znode_op, %union._znode_op, i32, i32, i8, i8, i8, i8 }
%union._znode_op = type { i32 }
%struct.zend_get_gc_buffer = type { ptr, ptr, ptr }
%struct._zend_call_stack = type { ptr, i64 }
%struct._zend_strtod_state = type { [8 x ptr], ptr, ptr }
%struct._zend_class_entry = type { i8, ptr, %union.anon.11, i32, i32, i32, i32, ptr, ptr, ptr, %struct._zend_array, %struct._zend_array, %struct._zend_array, ptr, ptr, ptr, ptr, ptr, ptr, ptr, ptr, ptr, ptr, ptr, ptr, ptr, ptr, ptr, ptr, ptr, ptr, ptr, %union.anon.12, ptr, ptr, ptr, ptr, i32, i32, i32, i32, %union.anon.13, ptr, ptr, ptr, ptr, i32, ptr, ptr, %union.anon.14 }
%union.anon.11 = type { ptr }
%union.anon.12 = type { ptr }
%union.anon.13 = type { ptr }
%union.anon.14 = type { %struct.anon.15 }
%struct.anon.15 = type { ptr, i32, i32 }
%struct._zend_string = type { %struct._zend_refcounted_h, i64, i64, [1 x i8] }
%struct.anon.10 = type { i8, [3 x i8], i32, ptr, ptr, ptr, i32, i32, ptr, ptr, ptr, ptr, i32, ptr }
%struct._zend_execute_data = type { ptr, ptr, ptr, ptr, %struct._zval_struct, ptr, ptr, ptr, ptr }

@phpdbg_globals = external global %struct._zend_phpdbg_globals, align 8
@executor_globals = external global %struct._zend_executor_globals, align 8
@.str.14 = private unnamed_addr constant [15 x i8] c"Not Executing!\00", align 1
@.str.17 = private unnamed_addr constant [27 x i8] c"Stack in %s::%s() (%d ops)\00", align 1
@.str.18 = private unnamed_addr constant [23 x i8] c"Stack in %s() (%d ops)\00", align 1
@.str.19 = private unnamed_addr constant [21 x i8] c"Stack in %s (%d ops)\00", align 1
@.str.20 = private unnamed_addr constant [20 x i8] c"Stack @ %p (%d ops)\00", align 1

; Function Attrs: alwaysinline nounwind uwtable
define internal ptr @phpdbg_user_execute_data(ptr noundef %0) #1 {
  %2 = alloca ptr, align 8
  store ptr %0, ptr %2, align 8, !tbaa !122
  br label %3

3:                                                ; preds = %19, %1
  %4 = load ptr, ptr %2, align 8, !tbaa !122
  %5 = getelementptr inbounds nuw %struct._zend_execute_data, ptr %4, i32 0, i32 3
  %6 = load ptr, ptr %5, align 8, !tbaa !116
  %7 = icmp ne ptr %6, null
  br i1 %7, label %8, label %17

8:                                                ; preds = %3
  %9 = load ptr, ptr %2, align 8, !tbaa !122
  %10 = getelementptr inbounds nuw %struct._zend_execute_data, ptr %9, i32 0, i32 3
  %11 = load ptr, ptr %10, align 8, !tbaa !116
  %12 = getelementptr inbounds nuw %struct.anon.10, ptr %11, i32 0, i32 0
  %13 = load i8, ptr %12, align 8, !tbaa !100
  %14 = zext i8 %13 to i32
  %15 = icmp ne i32 %14, 1
  %16 = xor i1 %15, true
  br label %17

17:                                               ; preds = %8, %3
  %18 = phi i1 [ true, %3 ], [ %16, %8 ]
  br i1 %18, label %19, label %25

19:                                               ; preds = %17
  %20 = load ptr, ptr %2, align 8, !tbaa !122
  %21 = getelementptr inbounds nuw %struct._zend_execute_data, ptr %20, i32 0, i32 5
  %22 = load ptr, ptr %21, align 8, !tbaa !136
  store ptr %22, ptr %2, align 8, !tbaa !122
  %23 = load ptr, ptr %2, align 8, !tbaa !122
  %24 = icmp ne ptr %23, null
  call void @llvm.assume(i1 %24)
  br label %3

25:                                               ; preds = %17
  %26 = load ptr, ptr %2, align 8, !tbaa !122
  ret ptr %26
}

; Function Attrs: nounwind uwtable
define hidden i32 @phpdbg_do_print_stack(ptr noundef %0) #0 {
  %2 = alloca ptr, align 8
  %3 = alloca ptr, align 8
  store ptr %0, ptr %2, align 8, !tbaa !4
  %4 = load i8, ptr getelementptr inbounds nuw (%struct._zend_phpdbg_globals, ptr @phpdbg_globals, i32 0, i32 31), align 8, !tbaa !57, !range !58, !noundef !59
  %5 = trunc i8 %4 to i1
  br i1 %5, label %6, label %79

6:                                                ; preds = %1
  %7 = load ptr, ptr getelementptr inbounds nuw (%struct._zend_executor_globals, ptr @executor_globals, i32 0, i32 19), align 8, !tbaa !60
  %8 = icmp ne ptr %7, null
  br i1 %8, label %9, label %79

9:                                                ; preds = %6
  call void @llvm.lifetime.start.p0(i64 8, ptr %3) #12
  %10 = load ptr, ptr getelementptr inbounds nuw (%struct._zend_executor_globals, ptr @executor_globals, i32 0, i32 19), align 8, !tbaa !60
  %11 = call ptr @phpdbg_user_execute_data(ptr noundef %10)
  %12 = getelementptr inbounds nuw %struct._zend_execute_data, ptr %11, i32 0, i32 3
  %13 = load ptr, ptr %12, align 8, !tbaa !116
  store ptr %13, ptr %3, align 8, !tbaa !118
  %14 = load ptr, ptr %3, align 8, !tbaa !118
  %15 = getelementptr inbounds nuw %struct._zend_op_array, ptr %14, i32 0, i32 3
  %16 = load ptr, ptr %15, align 8, !tbaa !119
  %17 = icmp ne ptr %16, null
  br i1 %17, label %18, label %53

18:                                               ; preds = %9
  %19 = load ptr, ptr %3, align 8, !tbaa !118
  %20 = getelementptr inbounds nuw %struct._zend_op_array, ptr %19, i32 0, i32 4
  %21 = load ptr, ptr %20, align 8, !tbaa !120
  %22 = icmp ne ptr %21, null
  br i1 %22, label %23, label %41

23:                                               ; preds = %18
  %24 = load i32, ptr getelementptr inbounds ([3 x %struct.anon.8], ptr getelementptr inbounds nuw (%struct._zend_phpdbg_globals, ptr @phpdbg_globals, i32 0, i32 40), i64 0, i64 1), align 4, !tbaa !41
  %25 = load ptr, ptr %3, align 8, !tbaa !118
  %26 = getelementptr inbounds nuw %struct._zend_op_array, ptr %25, i32 0, i32 4
  %27 = load ptr, ptr %26, align 8, !tbaa !120
  %28 = getelementptr inbounds nuw %struct._zend_class_entry, ptr %27, i32 0, i32 1
  %29 = load ptr, ptr %28, align 8, !tbaa !98
  %30 = getelementptr inbounds nuw %struct._zend_string, ptr %29, i32 0, i32 3
  %31 = getelementptr inbounds [1 x i8], ptr %30, i64 0, i64 0
  %32 = load ptr, ptr %3, align 8, !tbaa !118
  %33 = getelementptr inbounds nuw %struct._zend_op_array, ptr %32, i32 0, i32 3
  %34 = load ptr, ptr %33, align 8, !tbaa !119
  %35 = getelementptr inbounds nuw %struct._zend_string, ptr %34, i32 0, i32 3
  %36 = getelementptr inbounds [1 x i8], ptr %35, i64 0, i64 0
  %37 = load ptr, ptr %3, align 8, !tbaa !118
  %38 = getelementptr inbounds nuw %struct._zend_op_array, ptr %37, i32 0, i32 16
  %39 = load i32, ptr %38, align 8, !tbaa !43
  %40 = call i32 (i32, i32, ptr, ...) @phpdbg_print(i32 noundef 2, i32 noundef %24, ptr noundef @.str.17, ptr noundef %31, ptr noundef %36, i32 noundef %39)
  br label %52

41:                                               ; preds = %18
  %42 = load i32, ptr getelementptr inbounds ([3 x %struct.anon.8], ptr getelementptr inbounds nuw (%struct._zend_phpdbg_globals, ptr @phpdbg_globals, i32 0, i32 40), i64 0, i64 1), align 4, !tbaa !41
  %43 = load ptr, ptr %3, align 8, !tbaa !118
  %44 = getelementptr inbounds nuw %struct._zend_op_array, ptr %43, i32 0, i32 3
  %45 = load ptr, ptr %44, align 8, !tbaa !119
  %46 = getelementptr inbounds nuw %struct._zend_string, ptr %45, i32 0, i32 3
  %47 = getelementptr inbounds [1 x i8], ptr %46, i64 0, i64 0
  %48 = load ptr, ptr %3, align 8, !tbaa !118
  %49 = getelementptr inbounds nuw %struct._zend_op_array, ptr %48, i32 0, i32 16
  %50 = load i32, ptr %49, align 8, !tbaa !43
  %51 = call i32 (i32, i32, ptr, ...) @phpdbg_print(i32 noundef 2, i32 noundef %42, ptr noundef @.str.18, ptr noundef %47, i32 noundef %50)
  br label %52

52:                                               ; preds = %41, %23
  br label %77

53:                                               ; preds = %9
  %54 = load ptr, ptr %3, align 8, !tbaa !118
  %55 = getelementptr inbounds nuw %struct._zend_op_array, ptr %54, i32 0, i32 26
  %56 = load ptr, ptr %55, align 8, !tbaa !121
  %57 = icmp ne ptr %56, null
  br i1 %57, label %58, label %69

58:                                               ; preds = %53
  %59 = load i32, ptr getelementptr inbounds ([3 x %struct.anon.8], ptr getelementptr inbounds nuw (%struct._zend_phpdbg_globals, ptr @phpdbg_globals, i32 0, i32 40), i64 0, i64 1), align 4, !tbaa !41
  %60 = load ptr, ptr %3, align 8, !tbaa !118
  %61 = getelementptr inbounds nuw %struct._zend_op_array, ptr %60, i32 0, i32 26
  %62 = load ptr, ptr %61, align 8, !tbaa !121
  %63 = getelementptr inbounds nuw %struct._zend_string, ptr %62, i32 0, i32 3
  %64 = getelementptr inbounds [1 x i8], ptr %63, i64 0, i64 0
  %65 = load ptr, ptr %3, align 8, !tbaa !118
  %66 = getelementptr inbounds nuw %struct._zend_op_array, ptr %65, i32 0, i32 16
  %67 = load i32, ptr %66, align 8, !tbaa !43
  %68 = call i32 (i32, i32, ptr, ...) @phpdbg_print(i32 noundef 2, i32 noundef %59, ptr noundef @.str.19, ptr noundef %64, i32 noundef %67)
  br label %76

69:                                               ; preds = %53
  %70 = load i32, ptr getelementptr inbounds ([3 x %struct.anon.8], ptr getelementptr inbounds nuw (%struct._zend_phpdbg_globals, ptr @phpdbg_globals, i32 0, i32 40), i64 0, i64 1), align 4, !tbaa !41
  %71 = load ptr, ptr %3, align 8, !tbaa !118
  %72 = load ptr, ptr %3, align 8, !tbaa !118
  %73 = getelementptr inbounds nuw %struct._zend_op_array, ptr %72, i32 0, i32 16
  %74 = load i32, ptr %73, align 8, !tbaa !43
  %75 = call i32 (i32, i32, ptr, ...) @phpdbg_print(i32 noundef 2, i32 noundef %70, ptr noundef @.str.20, ptr noundef %71, i32 noundef %74)
  br label %76

76:                                               ; preds = %69, %58
  br label %77

77:                                               ; preds = %76, %52
  %78 = load ptr, ptr %3, align 8, !tbaa !118
  call void @phpdbg_print_function_helper(ptr noundef %78)
  call void @llvm.lifetime.end.p0(i64 8, ptr %3) #12
  br label %82

79:                                               ; preds = %6, %1
  %80 = load i32, ptr getelementptr inbounds ([3 x %struct.anon.8], ptr getelementptr inbounds nuw (%struct._zend_phpdbg_globals, ptr @phpdbg_globals, i32 0, i32 40), i64 0, i64 1), align 4, !tbaa !41
  %81 = call i32 (i32, i32, ptr, ...) @phpdbg_print(i32 noundef 1, i32 noundef %80, ptr noundef @.str.14)
  br label %82

82:                                               ; preds = %79, %77
  ret i32 0
}