; Function Attrs: nounwind uwtable
define hidden noundef i32 @phpdbg_do_print_stack(ptr readnone captures(none) %0) #0 {
  %2 = load i8, ptr getelementptr inbounds nuw (i8, ptr @phpdbg_globals, i64 1392), align 8, !tbaa !56, !range !57, !noundef !58
  %3 = trunc nuw i8 %2 to i1
  %4 = load ptr, ptr getelementptr inbounds nuw (i8, ptr @executor_globals, i64 512), align 8
  %5 = icmp ne ptr %4, null
  %or.cond = select i1 %3, i1 %5, i1 false
  br i1 %or.cond, label %.preheader, label %44

.preheader:                                       ; preds = %1, %.critedge.i
  %.0.i = phi ptr [ %11, %.critedge.i ], [ %4, %1 ]
  %6 = getelementptr inbounds nuw i8, ptr %.0.i, i64 24
  %7 = load ptr, ptr %6, align 8, !tbaa !59
  %.not.i = icmp eq ptr %7, null
  br i1 %.not.i, label %.critedge.i, label %8

8:                                                ; preds = %.preheader
  %9 = load i8, ptr %7, align 8, !tbaa !61
  %.not6.i = icmp eq i8 %9, 1
  br i1 %.not6.i, label %.critedge.i, label %phpdbg_user_execute_data.exit

.critedge.i:                                      ; preds = %8, %.preheader
  %10 = getelementptr inbounds nuw i8, ptr %.0.i, i64 48
  %11 = load ptr, ptr %10, align 8, !tbaa !62, !nonnull !58, !noundef !58
  br label %.preheader

phpdbg_user_execute_data.exit:                    ; preds = %8
  %12 = getelementptr inbounds nuw i8, ptr %7, i64 8
  %13 = load ptr, ptr %12, align 8, !tbaa !79
  %.not = icmp eq ptr %13, null
  %14 = load i32, ptr getelementptr inbounds nuw (i8, ptr @phpdbg_globals, i64 1508), align 4, !tbaa !40
  br i1 %.not, label %31, label %15

15:                                               ; preds = %phpdbg_user_execute_data.exit
  %16 = getelementptr inbounds nuw i8, ptr %7, i64 16
  %17 = load ptr, ptr %16, align 8, !tbaa !77
  %.not18 = icmp eq ptr %17, null
  br i1 %.not18, label %26, label %18

18:                                               ; preds = %15
  %19 = getelementptr inbounds nuw i8, ptr %17, i64 8
  %20 = load ptr, ptr %19, align 8, !tbaa !101
  %21 = getelementptr inbounds nuw i8, ptr %20, i64 24
  %22 = getelementptr inbounds nuw i8, ptr %13, i64 24
  %23 = getelementptr inbounds nuw i8, ptr %7, i64 96
  %24 = load i32, ptr %23, align 8, !tbaa !42
  %25 = tail call i32 (i32, i32, ptr, ...) @phpdbg_print(i32 noundef 2, i32 noundef %14, ptr noundef nonnull @.str.17, ptr noundef nonnull %21, ptr noundef nonnull %22, i32 noundef %24) #11
  br label %43

26:                                               ; preds = %15
  %27 = getelementptr inbounds nuw i8, ptr %13, i64 24
  %28 = getelementptr inbounds nuw i8, ptr %7, i64 96
  %29 = load i32, ptr %28, align 8, !tbaa !42
  %30 = tail call i32 (i32, i32, ptr, ...) @phpdbg_print(i32 noundef 2, i32 noundef %14, ptr noundef nonnull @.str.18, ptr noundef nonnull %27, i32 noundef %29) #11
  br label %43

31:                                               ; preds = %phpdbg_user_execute_data.exit
  %32 = getelementptr inbounds nuw i8, ptr %7, i64 168
  %33 = load ptr, ptr %32, align 8, !tbaa !75
  %.not17 = icmp eq ptr %33, null
  br i1 %.not17, label %39, label %34

34:                                               ; preds = %31
  %35 = getelementptr inbounds nuw i8, ptr %33, i64 24
  %36 = getelementptr inbounds nuw i8, ptr %7, i64 96
  %37 = load i32, ptr %36, align 8, !tbaa !42
  %38 = tail call i32 (i32, i32, ptr, ...) @phpdbg_print(i32 noundef 2, i32 noundef %14, ptr noundef nonnull @.str.19, ptr noundef nonnull %35, i32 noundef %37) #11
  br label %43

39:                                               ; preds = %31
  %40 = getelementptr inbounds nuw i8, ptr %7, i64 96
  %41 = load i32, ptr %40, align 8, !tbaa !42
  %42 = tail call i32 (i32, i32, ptr, ...) @phpdbg_print(i32 noundef 2, i32 noundef %14, ptr noundef nonnull @.str.20, ptr noundef nonnull %7, i32 noundef %41) #11
  br label %43

43:                                               ; preds = %34, %39, %18, %26
  tail call fastcc void @phpdbg_print_function_helper(ptr noundef nonnull %7)
  br label %47

44:                                               ; preds = %1
  %45 = load i32, ptr getelementptr inbounds nuw (i8, ptr @phpdbg_globals, i64 1508), align 4, !tbaa !40
  %46 = tail call i32 (i32, i32, ptr, ...) @phpdbg_print(i32 noundef 1, i32 noundef %45, ptr noundef nonnull @.str.14) #11
  br label %47

47:                                               ; preds = %44, %43
  ret i32 0
}